target datalayout = "e-m:e-p270:32:32-p271:32:32-p272:64:64-i64:64-i128:128-f80:128-n8:16:32:64-S128"
target triple = "x86_64-unknown-linux-gnu"

%"class.OpenColorIO_v2_4dev::LogOpData" = type <{ %"class.OpenColorIO_v2_4dev::OpData", %"class.std::vector.8", %"class.std::vector.8", %"class.std::vector.8", double, i32, [4 x i8] }>
%"class.OpenColorIO_v2_4dev::OpData" = type { ptr, %"class.std::mutex", %"class.OpenColorIO_v2_4dev::FormatMetadataImpl" }
%"class.std::mutex" = type { %"class.std::__mutex_base" }
%"class.std::__mutex_base" = type { %union.pthread_mutex_t }
%union.pthread_mutex_t = type { %struct.__pthread_mutex_s }
%struct.__pthread_mutex_s = type { i32, i32, i32, i32, i32, i16, i16, %struct.__pthread_internal_list }
%struct.__pthread_internal_list = type { ptr, ptr }
%"class.OpenColorIO_v2_4dev::FormatMetadataImpl" = type { %"class.OpenColorIO_v2_4dev::FormatMetadata", %"class.std::__cxx11::basic_string", %"class.std::__cxx11::basic_string", %"class.std::vector", %"class.std::vector.3" }
%"class.OpenColorIO_v2_4dev::FormatMetadata" = type { ptr }
%"class.std::__cxx11::basic_string" = type { %"struct.std::__cxx11::basic_string<char>::_Alloc_hider", i64, %union.anon }
%"struct.std::__cxx11::basic_string<char>::_Alloc_hider" = type { ptr }
%union.anon = type { i64, [8 x i8] }
%"class.std::vector" = type { %"struct.std::_Vector_base" }
%"struct.std::_Vector_base" = type { %"struct.std::_Vector_base<std::pair<std::__cxx11::basic_string<char>, std::__cxx11::basic_string<char>>, std::allocator<std::pair<std::__cxx11::basic_string<char>, std::__cxx11::basic_string<char>>>>::_Vector_impl" }
%"struct.std::_Vector_base<std::pair<std::__cxx11::basic_string<char>, std::__cxx11::basic_string<char>>, std::allocator<std::pair<std::__cxx11::basic_string<char>, std::__cxx11::basic_string<char>>>>::_Vector_impl" = type { %"struct.std::_Vector_base<std::pair<std::__cxx11::basic_string<char>, std::__cxx11::basic_string<char>>, std::allocator<std::pair<std::__cxx11::basic_string<char>, std::__cxx11::basic_string<char>>>>::_Vector_impl_data" }
%"struct.std::_Vector_base<std::pair<std::__cxx11::basic_string<char>, std::__cxx11::basic_string<char>>, std::allocator<std::pair<std::__cxx11::basic_string<char>, std::__cxx11::basic_string<char>>>>::_Vector_impl_data" = type { ptr, ptr, ptr }
%"class.std::vector.3" = type { %"struct.std::_Vector_base.4" }
%"struct.std::_Vector_base.4" = type { %"struct.std::_Vector_base<OpenColorIO_v2_4dev::FormatMetadataImpl, std::allocator<OpenColorIO_v2_4dev::FormatMetadataImpl>>::_Vector_impl" }
%"struct.std::_Vector_base<OpenColorIO_v2_4dev::FormatMetadataImpl, std::allocator<OpenColorIO_v2_4dev::FormatMetadataImpl>>::_Vector_impl" = type { %"struct.std::_Vector_base<OpenColorIO_v2_4dev::FormatMetadataImpl, std::allocator<OpenColorIO_v2_4dev::FormatMetadataImpl>>::_Vector_impl_data" }
%"struct.std::_Vector_base<OpenColorIO_v2_4dev::FormatMetadataImpl, std::allocator<OpenColorIO_v2_4dev::FormatMetadataImpl>>::_Vector_impl_data" = type { ptr, ptr, ptr }
%"class.std::vector.8" = type { %"struct.std::_Vector_base.9" }
%"struct.std::_Vector_base.9" = type { %"struct.std::_Vector_base<double, std::allocator<double>>::_Vector_impl" }
%"struct.std::_Vector_base<double, std::allocator<double>>::_Vector_impl" = type { %"struct.std::_Vector_base<double, std::allocator<double>>::_Vector_impl_data" }
%"struct.std::_Vector_base<double, std::allocator<double>>::_Vector_impl_data" = type { ptr, ptr, ptr }

; Function Attrs: mustprogress nounwind uwtable
define linkonce_odr hidden noundef nonnull align 8 dereferenceable(8) ptr @_ZNKSt6vectorIdSaIdEEixEm(ptr noundef nonnull align 8 dereferenceable(24) %this, i64 noundef %__n) #5 comdat align 2 {
entry:
  %this.addr = alloca ptr, align 8
  %__n.addr = alloca i64, align 8
  store ptr %this, ptr %this.addr, align 8
  store i64 %__n, ptr %__n.addr, align 8
  %this1 = load ptr, ptr %this.addr, align 8
  %_M_impl = getelementptr inbounds %"struct.std::_Vector_base.9", ptr %this1, i32 0, i32 0
  %_M_start = getelementptr inbounds %"struct.std::_Vector_base<double, std::allocator<double>>::_Vector_impl_data", ptr %_M_impl, i32 0, i32 0
  %0 = load ptr, ptr %_M_start, align 8
  %1 = load i64, ptr %__n.addr, align 8
  %add.ptr = getelementptr inbounds double, ptr %0, i64 %1
  ret ptr %add.ptr
}

; Function Attrs: mustprogress nounwind uwtable
define linkonce_odr hidden noundef i64 @_ZNKSt6vectorIdSaIdEE4sizeEv(ptr noundef nonnull align 8 dereferenceable(24) %this) #5 comdat align 2 {
entry:
  %this.addr = alloca ptr, align 8
  store ptr %this, ptr %this.addr, align 8
  %this1 = load ptr, ptr %this.addr, align 8
  %_M_impl = getelementptr inbounds %"struct.std::_Vector_base.9", ptr %this1, i32 0, i32 0
  %_M_finish = getelementptr inbounds %"struct.std::_Vector_base<double, std::allocator<double>>::_Vector_impl_data", ptr %_M_impl, i32 0, i32 1
  %0 = load ptr, ptr %_M_finish, align 8
  %_M_impl2 = getelementptr inbounds %"struct.std::_Vector_base.9", ptr %this1, i32 0, i32 0
  %_M_start = getelementptr inbounds %"struct.std::_Vector_base<double, std::allocator<double>>::_Vector_impl_data", ptr %_M_impl2, i32 0, i32 0
  %1 = load ptr, ptr %_M_start, align 8
  %sub.ptr.lhs.cast = ptrtoint ptr %0 to i64
  %sub.ptr.rhs.cast = ptrtoint ptr %1 to i64
  %sub.ptr.sub = sub i64 %sub.ptr.lhs.cast, %sub.ptr.rhs.cast
  %sub.ptr.div = sdiv exact i64 %sub.ptr.sub, 8
  ret i64 %sub.ptr.div
}

; Function Attrs: mustprogress nounwind uwtable
define hidden noundef zeroext i1 @_ZNK19OpenColorIO_v2_4dev9LogOpData8getValueENS_18LogAffineParameterERA3_d(ptr noundef nonnull align 8 dereferenceable(252) %this, i32 noundef %val, ptr noundef nonnull align 8 dereferenceable(24) %values) #5 align 2 {
entry:
  %retval = alloca i1, align 1
  %this.addr = alloca ptr, align 8
  %val.addr = alloca i32, align 4
  %values.addr = alloca ptr, align 8
  store ptr %this, ptr %this.addr, align 8
  store i32 %val, ptr %val.addr, align 4
  store ptr %values, ptr %values.addr, align 8
  %this1 = load ptr, ptr %this.addr, align 8
  %0 = load i32, ptr %val.addr, align 4
  %conv = zext i32 %0 to i64
  %m_redParams = getelementptr inbounds %"class.OpenColorIO_v2_4dev::LogOpData", ptr %this1, i32 0, i32 1
  %call = call noundef i64 @_ZNKSt6vectorIdSaIdEE4sizeEv(ptr noundef nonnull align 8 dereferenceable(24) %m_redParams) #3
  %cmp = icmp uge i64 %conv, %call
  br i1 %cmp, label %if.then, label %if.end

if.then:                                          ; preds = %entry
  store i1 false, ptr %retval, align 1
  br label %return

if.end:                                           ; preds = %entry
  %m_redParams2 = getelementptr inbounds %"class.OpenColorIO_v2_4dev::LogOpData", ptr %this1, i32 0, i32 1
  %1 = load i32, ptr %val.addr, align 4
  %conv3 = zext i32 %1 to i64
  %call4 = call noundef nonnull align 8 dereferenceable(8) ptr @_ZNKSt6vectorIdSaIdEEixEm(ptr noundef nonnull align 8 dereferenceable(24) %m_redParams2, i64 noundef %conv3) #3
  %2 = load double, ptr %call4, align 8
  %3 = load ptr, ptr %values.addr, align 8
  %arrayidx = getelementptr inbounds [3 x double], ptr %3, i64 0, i64 0
  store double %2, ptr %arrayidx, align 8
  %m_greenParams = getelementptr inbounds %"class.OpenColorIO_v2_4dev::LogOpData", ptr %this1, i32 0, i32 2
  %4 = load i32, ptr %val.addr, align 4
  %conv5 = zext i32 %4 to i64
  %call6 = call noundef nonnull align 8 dereferenceable(8) ptr @_ZNKSt6vectorIdSaIdEEixEm(ptr noundef nonnull align 8 dereferenceable(24) %m_greenParams, i64 noundef %conv5) #3
  %5 = load double, ptr %call6, align 8
  %6 = load ptr, ptr %values.addr, align 8
  %arrayidx7 = getelementptr inbounds [3 x double], ptr %6, i64 0, i64 1
  store double %5, ptr %arrayidx7, align 8
  %m_blueParams = getelementptr inbounds %"class.OpenColorIO_v2_4dev::LogOpData", ptr %this1, i32 0, i32 3
  %7 = load i32, ptr %val.addr, align 4
  %conv8 = zext i32 %7 to i64
  %call9 = call noundef nonnull align 8 dereferenceable(8) ptr @_ZNKSt6vectorIdSaIdEEixEm(ptr noundef nonnull align 8 dereferenceable(24) %m_blueParams, i64 noundef %conv8) #3
  %8 = load double, ptr %call9, align 8
  %9 = load ptr, ptr %values.addr, align 8
  %arrayidx10 = getelementptr inbounds [3 x double], ptr %9, i64 0, i64 2
  store double %8, ptr %arrayidx10, align 8
  store i1 true, ptr %retval, align 1
  br label %return

return:                                           ; preds = %if.end, %if.then
  %10 = load i1, ptr %retval, align 1
  ret i1 %10
}

; Function Attrs: mustprogress nounwind uwtable
define hidden void @_ZNK19OpenColorIO_v2_4dev9LogOpData13getParametersERA3_dS2_S2_S2_(ptr noundef nonnull align 8 dereferenceable(252) %this, ptr noundef nonnull align 8 dereferenceable(24) %logSlope, ptr noundef nonnull align 8 dereferenceable(24) %logOffset, ptr noundef nonnull align 8 dereferenceable(24) %linSlope, ptr noundef nonnull align 8 dereferenceable(24) %linOffset) #5 align 2 {
entry:
  %this.addr = alloca ptr, align 8
  %logSlope.addr = alloca ptr, align 8
  %logOffset.addr = alloca ptr, align 8
  %linSlope.addr = alloca ptr, align 8
  %linOffset.addr = alloca ptr, align 8
  store ptr %this, ptr %this.addr, align 8
  store ptr %logSlope, ptr %logSlope.addr, align 8
  store ptr %logOffset, ptr %logOffset.addr, align 8
  store ptr %linSlope, ptr %linSlope.addr, align 8
  store ptr %linOffset, ptr %linOffset.addr, align 8
  %this1 = load ptr, ptr %this.addr, align 8
  %0 = load ptr, ptr %logSlope.addr, align 8
  %call = call noundef zeroext i1 @_ZNK19OpenColorIO_v2_4dev9LogOpData8getValueENS_18LogAffineParameterERA3_d(ptr noundef nonnull align 8 dereferenceable(252) %this1, i32 noundef 0, ptr noundef nonnull align 8 dereferenceable(24) %0) #3
  %1 = load ptr, ptr %logOffset.addr, align 8
  %call2 = call noundef zeroext i1 @_ZNK19OpenColorIO_v2_4dev9LogOpData8getValueENS_18LogAffineParameterERA3_d(ptr noundef nonnull align 8 dereferenceable(252) %this1, i32 noundef 1, ptr noundef nonnull align 8 dereferenceable(24) %1) #3
  %2 = load ptr, ptr %linSlope.addr, align 8
  %call3 = call noundef zeroext i1 @_ZNK19OpenColorIO_v2_4dev9LogOpData8getValueENS_18LogAffineParameterERA3_d(ptr noundef nonnull align 8 dereferenceable(252) %this1, i32 noundef 2, ptr noundef nonnull align 8 dereferenceable(24) %2) #3
  %3 = load ptr, ptr %linOffset.addr, align 8
  %call4 = call noundef zeroext i1 @_ZNK19OpenColorIO_v2_4dev9LogOpData8getValueENS_18LogAffineParameterERA3_d(ptr noundef nonnull align 8 dereferenceable(252) %this1, i32 noundef 3, ptr noundef nonnull align 8 dereferenceable(24) %3) #3
  ret void
}