; Function Attrs: mustprogress nofree norecurse nosync nounwind willreturn memory(read, argmem: readwrite, inaccessiblemem: none) uwtable
define hidden void @_ZNK19OpenColorIO_v2_4dev9LogOpData13getParametersERA3_dS2_S2_S2_(ptr nocapture noundef nonnull readonly align 8 dereferenceable(252) %this, ptr nocapture noundef nonnull writeonly align 8 dereferenceable(24) %logSlope, ptr nocapture noundef nonnull writeonly align 8 dereferenceable(24) %logOffset, ptr nocapture noundef nonnull writeonly align 8 dereferenceable(24) %linSlope, ptr nocapture noundef nonnull writeonly align 8 dereferenceable(24) %linOffset) local_unnamed_addr #6 align 2 {
entry:
  %m_redParams.i = getelementptr inbounds i8, ptr %this, i64 168
  %_M_finish.i.i = getelementptr inbounds i8, ptr %this, i64 176
  %0 = load ptr, ptr %_M_finish.i.i, align 8
  %1 = load ptr, ptr %m_redParams.i, align 8
  %cmp.not.i.not = icmp eq ptr %0, %1
  br i1 %cmp.not.i.not, label %_ZNK19OpenColorIO_v2_4dev9LogOpData8getValueENS_18LogAffineParameterERA3_d.exit, label %if.end.i

if.end.i:                                         ; preds = %entry
  %2 = load double, ptr %1, align 8
  store double %2, ptr %logSlope, align 8
  %m_greenParams.i = getelementptr inbounds i8, ptr %this, i64 192
  %3 = load ptr, ptr %m_greenParams.i, align 8
  %4 = load double, ptr %3, align 8
  %arrayidx7.i = getelementptr inbounds i8, ptr %logSlope, i64 8
  store double %4, ptr %arrayidx7.i, align 8
  %m_blueParams.i = getelementptr inbounds i8, ptr %this, i64 216
  %5 = load ptr, ptr %m_blueParams.i, align 8
  %6 = load double, ptr %5, align 8
  %arrayidx10.i = getelementptr inbounds i8, ptr %logSlope, i64 16
  store double %6, ptr %arrayidx10.i, align 8
  %.pre = load ptr, ptr %_M_finish.i.i, align 8
  %.pre46 = load ptr, ptr %m_redParams.i, align 8
  br label %_ZNK19OpenColorIO_v2_4dev9LogOpData8getValueENS_18LogAffineParameterERA3_d.exit

_ZNK19OpenColorIO_v2_4dev9LogOpData8getValueENS_18LogAffineParameterERA3_d.exit: ; preds = %entry, %if.end.i
  %7 = phi ptr [ %0, %entry ], [ %.pre46, %if.end.i ]
  %8 = phi ptr [ %0, %entry ], [ %.pre, %if.end.i ]
  %sub.ptr.lhs.cast.i.i3 = ptrtoint ptr %8 to i64
  %sub.ptr.rhs.cast.i.i4 = ptrtoint ptr %7 to i64
  %sub.ptr.sub.i.i5 = sub i64 %sub.ptr.lhs.cast.i.i3, %sub.ptr.rhs.cast.i.i4
  %cmp.not.i7 = icmp ugt i64 %sub.ptr.sub.i.i5, 8
  br i1 %cmp.not.i7, label %_ZNK19OpenColorIO_v2_4dev9LogOpData8getValueENS_18LogAffineParameterERA3_d.exit13, label %_ZNK19OpenColorIO_v2_4dev9LogOpData8getValueENS_18LogAffineParameterERA3_d.exit45

_ZNK19OpenColorIO_v2_4dev9LogOpData8getValueENS_18LogAffineParameterERA3_d.exit13: ; preds = %_ZNK19OpenColorIO_v2_4dev9LogOpData8getValueENS_18LogAffineParameterERA3_d.exit
  %add.ptr.i.i = getelementptr inbounds i8, ptr %7, i64 8
  %9 = load double, ptr %add.ptr.i.i, align 8
  store double %9, ptr %logOffset, align 8
  %m_greenParams.i9 = getelementptr inbounds i8, ptr %this, i64 192
  %10 = load ptr, ptr %m_greenParams.i9, align 8
  %add.ptr.i6.i = getelementptr inbounds i8, ptr %10, i64 8
  %11 = load double, ptr %add.ptr.i6.i, align 8
  %arrayidx7.i10 = getelementptr inbounds i8, ptr %logOffset, i64 8
  store double %11, ptr %arrayidx7.i10, align 8
  %m_blueParams.i11 = getelementptr inbounds i8, ptr %this, i64 216
  %12 = load ptr, ptr %m_blueParams.i11, align 8
  %add.ptr.i7.i = getelementptr inbounds i8, ptr %12, i64 8
  %13 = load double, ptr %add.ptr.i7.i, align 8
  %arrayidx10.i12 = getelementptr inbounds i8, ptr %logOffset, i64 16
  store double %13, ptr %arrayidx10.i12, align 8
  %.pre47 = load ptr, ptr %_M_finish.i.i, align 8
  %.pre48 = load ptr, ptr %m_redParams.i, align 8
  %.pre51 = ptrtoint ptr %.pre47 to i64
  %.pre52 = ptrtoint ptr %.pre48 to i64
  %.pre53 = sub i64 %.pre51, %.pre52
  %14 = icmp ugt i64 %.pre53, 16
  br i1 %14, label %_ZNK19OpenColorIO_v2_4dev9LogOpData8getValueENS_18LogAffineParameterERA3_d.exit29, label %_ZNK19OpenColorIO_v2_4dev9LogOpData8getValueENS_18LogAffineParameterERA3_d.exit45

_ZNK19OpenColorIO_v2_4dev9LogOpData8getValueENS_18LogAffineParameterERA3_d.exit29: ; preds = %_ZNK19OpenColorIO_v2_4dev9LogOpData8getValueENS_18LogAffineParameterERA3_d.exit13
  %add.ptr.i.i22 = getelementptr inbounds i8, ptr %.pre48, i64 16
  %15 = load double, ptr %add.ptr.i.i22, align 8
  store double %15, ptr %linSlope, align 8
  %m_greenParams.i23 = getelementptr inbounds i8, ptr %this, i64 192
  %16 = load ptr, ptr %m_greenParams.i23, align 8
  %add.ptr.i6.i24 = getelementptr inbounds i8, ptr %16, i64 16
  %17 = load double, ptr %add.ptr.i6.i24, align 8
  %arrayidx7.i25 = getelementptr inbounds i8, ptr %linSlope, i64 8
  store double %17, ptr %arrayidx7.i25, align 8
  %m_blueParams.i26 = getelementptr inbounds i8, ptr %this, i64 216
  %18 = load ptr, ptr %m_blueParams.i26, align 8
  %add.ptr.i7.i27 = getelementptr inbounds i8, ptr %18, i64 16
  %19 = load double, ptr %add.ptr.i7.i27, align 8
  %arrayidx10.i28 = getelementptr inbounds i8, ptr %linSlope, i64 16
  store double %19, ptr %arrayidx10.i28, align 8
  %.pre49 = load ptr, ptr %_M_finish.i.i, align 8
  %.pre50 = load ptr, ptr %m_redParams.i, align 8
  %.pre54 = ptrtoint ptr %.pre49 to i64
  %.pre55 = ptrtoint ptr %.pre50 to i64
  %.pre56 = sub i64 %.pre54, %.pre55
  %20 = icmp ugt i64 %.pre56, 24
  br i1 %20, label %if.end.i37, label %_ZNK19OpenColorIO_v2_4dev9LogOpData8getValueENS_18LogAffineParameterERA3_d.exit45

if.end.i37:                                       ; preds = %_ZNK19OpenColorIO_v2_4dev9LogOpData8getValueENS_18LogAffineParameterERA3_d.exit29
  %add.ptr.i.i38 = getelementptr inbounds i8, ptr %.pre50, i64 24
  %21 = load double, ptr %add.ptr.i.i38, align 8
  store double %21, ptr %linOffset, align 8
  %m_greenParams.i39 = getelementptr inbounds i8, ptr %this, i64 192
  %22 = load ptr, ptr %m_greenParams.i39, align 8
  %add.ptr.i6.i40 = getelementptr inbounds i8, ptr %22, i64 24
  %23 = load double, ptr %add.ptr.i6.i40, align 8
  %arrayidx7.i41 = getelementptr inbounds i8, ptr %linOffset, i64 8
  store double %23, ptr %arrayidx7.i41, align 8
  %m_blueParams.i42 = getelementptr inbounds i8, ptr %this, i64 216
  %24 = load ptr, ptr %m_blueParams.i42, align 8
  %add.ptr.i7.i43 = getelementptr inbounds i8, ptr %24, i64 24
  %25 = load double, ptr %add.ptr.i7.i43, align 8
  %arrayidx10.i44 = getelementptr inbounds i8, ptr %linOffset, i64 16
  store double %25, ptr %arrayidx10.i44, align 8
  br label %_ZNK19OpenColorIO_v2_4dev9LogOpData8getValueENS_18LogAffineParameterERA3_d.exit45

_ZNK19OpenColorIO_v2_4dev9LogOpData8getValueENS_18LogAffineParameterERA3_d.exit45: ; preds = %_ZNK19OpenColorIO_v2_4dev9LogOpData8getValueENS_18LogAffineParameterERA3_d.exit, %_ZNK19OpenColorIO_v2_4dev9LogOpData8getValueENS_18LogAffineParameterERA3_d.exit13, %_ZNK19OpenColorIO_v2_4dev9LogOpData8getValueENS_18LogAffineParameterERA3_d.exit29, %if.end.i37
  ret void
}